; ModuleID = '38/45.c'
source_filename = "38/45.c"
target datalayout = "e-m:e-p270:32:32-p271:32:32-p272:64:64-i64:64-f80:128-n8:16:32:64-S128"
target triple = "x86_64-pc-linux-gnu"

@.str = private unnamed_addr constant [3 x i8] c"%f\00", align 1
@.str.1 = private unnamed_addr constant [7 x i8] c"%.5lf\0A\00", align 1
@.str.2 = private unnamed_addr constant [3 x i8] c"%d\00", align 1

; Function Attrs: noinline nounwind uwtable
define dso_local void @jun(i32 %0) #0 {
  %2 = alloca i32, align 4
  %3 = alloca float*, align 8
  %4 = alloca i32, align 4
  %5 = alloca float, align 4
  %6 = alloca double, align 8
  %7 = alloca double, align 8
  store i32 %0, i32* %2, align 4
  store float 0.000000e+00, float* %5, align 4
  store double 0.000000e+00, double* %6, align 8
  %8 = load i32, i32* %2, align 4
  %9 = sext i32 %8 to i64
  %10 = mul i64 %9, 4
  %11 = call noalias i8* @malloc(i64 %10) #3
  %12 = bitcast i8* %11 to float*
  store float* %12, float** %3, align 8
  store i32 0, i32* %4, align 4
  br label %13

13:                                               ; preds = %30, %1
  %14 = load i32, i32* %4, align 4
  %15 = load i32, i32* %2, align 4
  %16 = icmp slt i32 %14, %15
  br i1 %16, label %17, label %33

17:                                               ; preds = %13
  %18 = load float*, float** %3, align 8
  %19 = load i32, i32* %4, align 4
  %20 = sext i32 %19 to i64
  %21 = getelementptr inbounds float, float* %18, i64 %20
  %22 = call i32 (i8*, ...) @__isoc99_scanf(i8* getelementptr inbounds ([3 x i8], [3 x i8]* @.str, i64 0, i64 0), float* %21)
  %23 = load float*, float** %3, align 8
  %24 = load i32, i32* %4, align 4
  %25 = sext i32 %24 to i64
  %26 = getelementptr inbounds float, float* %23, i64 %25
  %27 = load float, float* %26, align 4
  %28 = load float, float* %5, align 4
  %29 = fadd float %28, %27
  store float %29, float* %5, align 4
  br label %30

30:                                               ; preds = %17
  %31 = load i32, i32* %4, align 4
  %32 = add nsw i32 %31, 1
  store i32 %32, i32* %4, align 4
  br label %13

33:                                               ; preds = %13
  %34 = load float, float* %5, align 4
  %35 = load i32, i32* %2, align 4
  %36 = sitofp i32 %35 to float
  %37 = fdiv float %34, %36
  store float %37, float* %5, align 4
  store i32 0, i32* %4, align 4
  br label %38

38:                                               ; preds = %54, %33
  %39 = load i32, i32* %4, align 4
  %40 = load i32, i32* %2, align 4
  %41 = icmp slt i32 %39, %40
  br i1 %41, label %42, label %57

42:                                               ; preds = %38
  %43 = load float*, float** %3, align 8
  %44 = load i32, i32* %4, align 4
  %45 = sext i32 %44 to i64
  %46 = getelementptr inbounds float, float* %43, i64 %45
  %47 = load float, float* %46, align 4
  %48 = load float, float* %5, align 4
  %49 = fsub float %47, %48
  %50 = fpext float %49 to double
  %51 = call double @pow(double %50, double 2.000000e+00) #3
  %52 = load double, double* %6, align 8
  %53 = fadd double %52, %51
  store double %53, double* %6, align 8
  br label %54

54:                                               ; preds = %42
  %55 = load i32, i32* %4, align 4
  %56 = add nsw i32 %55, 1
  store i32 %56, i32* %4, align 4
  br label %38

57:                                               ; preds = %38
  %58 = load double, double* %6, align 8
  %59 = load i32, i32* %2, align 4
  %60 = sitofp i32 %59 to double
  %61 = fdiv double %58, %60
  store double %61, double* %6, align 8
  %62 = load double, double* %6, align 8
  %63 = call double @sqrt(double %62) #3
  store double %63, double* %7, align 8
  %64 = load double, double* %7, align 8
  %65 = call i32 (i8*, ...) @printf(i8* getelementptr inbounds ([7 x i8], [7 x i8]* @.str.1, i64 0, i64 0), double %64)
  ret void
}

; Function Attrs: nounwind
declare dso_local noalias i8* @malloc(i64) #1

declare dso_local i32 @__isoc99_scanf(i8*, ...) #2

; Function Attrs: nounwind
declare dso_local double @pow(double, double) #1

; Function Attrs: nounwind
declare dso_local double @sqrt(double) #1

declare dso_local i32 @printf(i8*, ...) #2

; Function Attrs: noinline nounwind uwtable
define dso_local i32 @main() #0 {
  %1 = alloca i32, align 4
  %2 = alloca i32, align 4
  %3 = alloca i32, align 4
  %4 = alloca i32, align 4
  store i32 0, i32* %1, align 4
  %5 = call i32 (i8*, ...) @__isoc99_scanf(i8* getelementptr inbounds ([3 x i8], [3 x i8]* @.str.2, i64 0, i64 0), i32* %3)
  store i32 0, i32* %4, align 4
  br label %6

6:                                                ; preds = %13, %0
  %7 = load i32, i32* %4, align 4
  %8 = load i32, i32* %3, align 4
  %9 = icmp slt i32 %7, %8
  br i1 %9, label %10, label %16

10:                                               ; preds = %6
  %11 = call i32 (i8*, ...) @__isoc99_scanf(i8* getelementptr inbounds ([3 x i8], [3 x i8]* @.str.2, i64 0, i64 0), i32* %2)
  %12 = load i32, i32* %2, align 4
  call void @jun(i32 %12)
  br label %13

13:                                               ; preds = %10
  %14 = load i32, i32* %4, align 4
  %15 = add nsw i32 %14, 1
  store i32 %15, i32* %4, align 4
  br label %6

16:                                               ; preds = %6
  ret i32 0
}


!llvm.module.flags = !{!0}
!llvm.ident = !{!1}

!0 = !{i32 1, !"wchar_size", i32 4}
!1 = !{!"clang version 10.0.0-4ubuntu1 "}
